target datalayout = "e-m:e-p270:32:32-p271:32:32-p272:64:64-i64:64-i128:128-f80:128-n8:16:32:64-S128"
target triple = "x86_64-pc-linux-gnu"

@.str.2675 = private unnamed_addr constant [19 x i8] c"DeviceIdentifier: \00", align 1

; Function Attrs: null_pointer_is_valid sspstrong uwtable
define internal i32 @fRequestKeyRequest(ptr noundef %0, ptr noundef %1, ptr noundef %2, i32 noundef %3) #0 {
  %5 = alloca ptr, align 8
  %6 = alloca ptr, align 8
  %7 = alloca ptr, align 8
  %8 = alloca i32, align 4
  %9 = alloca i8, align 1
  %10 = alloca i8, align 1
  %11 = alloca i32, align 4
  store ptr %0, ptr %5, align 8
  store ptr %1, ptr %6, align 8
  store ptr %2, ptr %7, align 8
  store i32 %3, ptr %8, align 4
  call void @llvm.lifetime.start.p0(i64 1, ptr %9) #7
  call void @llvm.lifetime.start.p0(i64 1, ptr %10) #7
  call void @llvm.lifetime.start.p0(i64 4, ptr %11) #7
  %12 = load ptr, ptr %5, align 8
  %13 = load ptr, ptr %6, align 8
  %14 = load ptr, ptr %7, align 8
  %15 = load i32, ptr %8, align 4
  %16 = call i32 @fObjectIdentifier(ptr noundef %12, ptr noundef %13, ptr noundef %14, i32 noundef %15, ptr noundef @.str.2675)
  store i32 %16, ptr %8, align 4
  %17 = load ptr, ptr %5, align 8
  %18 = load ptr, ptr %6, align 8
  %19 = load ptr, ptr %7, align 8
  %20 = load i32, ptr %8, align 4
  %21 = call i32 @fTagHeaderTree(ptr noundef %17, ptr noundef %18, ptr noundef %19, i32 noundef %20, ptr noundef %9, ptr noundef %10, ptr noundef %11)
  %22 = load i32, ptr %8, align 4
  %23 = add i32 %22, %21
  store i32 %23, ptr %8, align 4
  %24 = load ptr, ptr %5, align 8
  %25 = load ptr, ptr %6, align 8
  %26 = load ptr, ptr %7, align 8
  %27 = load i32, ptr %8, align 4
  %28 = call i32 @fAddress(ptr noundef %24, ptr noundef %25, ptr noundef %26, i32 noundef %27)
  store i32 %28, ptr %8, align 4
  %29 = load ptr, ptr %5, align 8
  %30 = load ptr, ptr %6, align 8
  %31 = load ptr, ptr %7, align 8
  %32 = load i32, ptr %8, align 4
  %33 = call i32 @fTagHeaderTree(ptr noundef %29, ptr noundef %30, ptr noundef %31, i32 noundef %32, ptr noundef %9, ptr noundef %10, ptr noundef %11)
  %34 = load i32, ptr %8, align 4
  %35 = add i32 %34, %33
  store i32 %35, ptr %8, align 4
  %36 = load ptr, ptr %5, align 8
  %37 = load ptr, ptr %6, align 8
  %38 = load ptr, ptr %7, align 8
  %39 = load i32, ptr %8, align 4
  %40 = call i32 @fObjectIdentifier(ptr noundef %36, ptr noundef %37, ptr noundef %38, i32 noundef %39, ptr noundef @.str.2675)
  store i32 %40, ptr %8, align 4
  %41 = load ptr, ptr %5, align 8
  %42 = load ptr, ptr %6, align 8
  %43 = load ptr, ptr %7, align 8
  %44 = load i32, ptr %8, align 4
  %45 = call i32 @fTagHeaderTree(ptr noundef %41, ptr noundef %42, ptr noundef %43, i32 noundef %44, ptr noundef %9, ptr noundef %10, ptr noundef %11)
  %46 = load i32, ptr %8, align 4
  %47 = add i32 %46, %45
  store i32 %47, ptr %8, align 4
  %48 = load ptr, ptr %5, align 8
  %49 = load ptr, ptr %6, align 8
  %50 = load ptr, ptr %7, align 8
  %51 = load i32, ptr %8, align 4
  %52 = call i32 @fAddress(ptr noundef %48, ptr noundef %49, ptr noundef %50, i32 noundef %51)
  store i32 %52, ptr %8, align 4
  %53 = load ptr, ptr %5, align 8
  %54 = load ptr, ptr %6, align 8
  %55 = load ptr, ptr %7, align 8
  %56 = load i32, ptr %8, align 4
  %57 = call i32 @fTagHeaderTree(ptr noundef %53, ptr noundef %54, ptr noundef %55, i32 noundef %56, ptr noundef %9, ptr noundef %10, ptr noundef %11)
  %58 = load i32, ptr %8, align 4
  %59 = add i32 %58, %57
  store i32 %59, ptr %8, align 4
  %60 = load i32, ptr %8, align 4
  call void @llvm.lifetime.end.p0(i64 4, ptr %11) #7
  call void @llvm.lifetime.end.p0(i64 1, ptr %10) #7
  call void @llvm.lifetime.end.p0(i64 1, ptr %9) #7
  ret i32 %60
}