; Function Attrs: null_pointer_is_valid sspstrong uwtable
define internal fastcc i32 @fRequestKeyRequest(ptr noundef nonnull %0, ptr noundef %1, ptr noundef %2, i32 noundef range(i32 0, 7) %3) unnamed_addr #0 {
  %5 = alloca i8, align 1
  %6 = alloca i8, align 1
  %7 = alloca i32, align 4
  call void @llvm.lifetime.start.p0(i64 1, ptr nonnull %5) #6
  call void @llvm.lifetime.start.p0(i64 1, ptr nonnull %6) #6
  call void @llvm.lifetime.start.p0(i64 4, ptr nonnull %7) #6
  %8 = tail call fastcc i32 @fObjectIdentifier(ptr noundef %0, ptr noundef %1, ptr noundef %2, i32 noundef %3, ptr noundef nonnull @.str.2675)
  %9 = call fastcc i32 @fTagHeaderTree(ptr noundef %0, ptr noundef %1, ptr noundef %2, i32 noundef %8, ptr noundef nonnull %5, ptr noundef nonnull %6, ptr noundef nonnull %7)
  %10 = add i32 %9, %8
  %11 = tail call fastcc i32 @fAddress(ptr noundef %0, ptr noundef %1, ptr noundef %2, i32 noundef %10)
  %12 = call fastcc i32 @fTagHeaderTree(ptr noundef %0, ptr noundef %1, ptr noundef %2, i32 noundef %11, ptr noundef nonnull %5, ptr noundef nonnull %6, ptr noundef nonnull %7)
  %13 = add i32 %12, %11
  %14 = tail call fastcc i32 @fObjectIdentifier(ptr noundef %0, ptr noundef %1, ptr noundef %2, i32 noundef %13, ptr noundef nonnull @.str.2675)
  %15 = call fastcc i32 @fTagHeaderTree(ptr noundef %0, ptr noundef %1, ptr noundef %2, i32 noundef %14, ptr noundef nonnull %5, ptr noundef nonnull %6, ptr noundef nonnull %7)
  %16 = add i32 %15, %14
  %17 = tail call fastcc i32 @fAddress(ptr noundef %0, ptr noundef %1, ptr noundef %2, i32 noundef %16)
  %18 = call fastcc i32 @fTagHeaderTree(ptr noundef %0, ptr noundef %1, ptr noundef %2, i32 noundef %17, ptr noundef nonnull %5, ptr noundef nonnull %6, ptr noundef nonnull %7)
  %19 = add i32 %18, %17
  call void @llvm.lifetime.end.p0(i64 4, ptr nonnull %7) #6
  call void @llvm.lifetime.end.p0(i64 1, ptr nonnull %6) #6
  call void @llvm.lifetime.end.p0(i64 1, ptr nonnull %5) #6
  ret i32 %19
}